target datalayout = "e-m:e-p270:32:32-p271:32:32-p272:64:64-i64:64-i128:128-f80:128-n8:16:32:64-S128"
target triple = "x86_64-pc-linux-gnu"

%struct.newhope_poly_st = type { [1024 x i16] }

; Function Attrs: nounwind uwtable
define hidden void @newhope_poly_getnoise(ptr noundef %0) #0 {
  %2 = alloca ptr, align 8
  %3 = alloca [1024 x i32], align 16
  %4 = alloca i64, align 8
  %5 = alloca i32, align 4
  %6 = alloca i64, align 8
  %7 = alloca i32, align 4
  %8 = alloca i32, align 4
  %9 = alloca i32, align 4
  store ptr %0, ptr %2, align 8, !tbaa !6
  call void @llvm.lifetime.start.p0(i64 4096, ptr %3) #5
  %10 = getelementptr inbounds [1024 x i32], ptr %3, i64 0, i64 0
  %11 = call i32 @RAND_bytes(ptr noundef %10, i64 noundef 4096)
  call void @llvm.lifetime.start.p0(i64 8, ptr %4) #5
  store i64 0, ptr %4, align 8, !tbaa !21
  br label %12

12:                                               ; preds = %55, %1
  %13 = load i64, ptr %4, align 8, !tbaa !21
  %14 = icmp ult i64 %13, 1024
  br i1 %14, label %15, label %58

15:                                               ; preds = %12
  call void @llvm.lifetime.start.p0(i64 4, ptr %5) #5
  %16 = load i64, ptr %4, align 8, !tbaa !21
  %17 = getelementptr inbounds nuw [1024 x i32], ptr %3, i64 0, i64 %16
  %18 = load i32, ptr %17, align 4, !tbaa !13
  store i32 %18, ptr %5, align 4, !tbaa !13
  call void @llvm.lifetime.start.p0(i64 8, ptr %6) #5
  call void @llvm.lifetime.start.p0(i64 4, ptr %7) #5
  store i32 0, ptr %7, align 4, !tbaa !13
  store i64 0, ptr %6, align 8, !tbaa !21
  br label %19

19:                                               ; preds = %30, %15
  %20 = load i64, ptr %6, align 8, !tbaa !21
  %21 = icmp ult i64 %20, 8
  br i1 %21, label %22, label %33

22:                                               ; preds = %19
  %23 = load i32, ptr %5, align 4, !tbaa !13
  %24 = load i64, ptr %6, align 8, !tbaa !21
  %25 = trunc i64 %24 to i32
  %26 = lshr i32 %23, %25
  %27 = and i32 %26, 16843009
  %28 = load i32, ptr %7, align 4, !tbaa !13
  %29 = add i32 %28, %27
  store i32 %29, ptr %7, align 4, !tbaa !13
  br label %30

30:                                               ; preds = %22
  %31 = load i64, ptr %6, align 8, !tbaa !21
  %32 = add i64 %31, 1
  store i64 %32, ptr %6, align 8, !tbaa !21
  br label %19, !llvm.loop !24

33:                                               ; preds = %19
  call void @llvm.lifetime.start.p0(i64 4, ptr %8) #5
  %34 = load i32, ptr %7, align 4, !tbaa !13
  %35 = lshr i32 %34, 8
  %36 = and i32 %35, 255
  %37 = load i32, ptr %7, align 4, !tbaa !13
  %38 = and i32 %37, 255
  %39 = add i32 %36, %38
  store i32 %39, ptr %8, align 4, !tbaa !13
  call void @llvm.lifetime.start.p0(i64 4, ptr %9) #5
  %40 = load i32, ptr %7, align 4, !tbaa !13
  %41 = lshr i32 %40, 24
  %42 = load i32, ptr %7, align 4, !tbaa !13
  %43 = lshr i32 %42, 16
  %44 = and i32 %43, 255
  %45 = add i32 %41, %44
  store i32 %45, ptr %9, align 4, !tbaa !13
  %46 = load i32, ptr %8, align 4, !tbaa !13
  %47 = add i32 %46, 12289
  %48 = load i32, ptr %9, align 4, !tbaa !13
  %49 = sub i32 %47, %48
  %50 = trunc i32 %49 to i16
  %51 = load ptr, ptr %2, align 8, !tbaa !6
  %52 = getelementptr inbounds nuw %struct.newhope_poly_st, ptr %51, i32 0, i32 0
  %53 = load i64, ptr %4, align 8, !tbaa !21
  %54 = getelementptr inbounds nuw [1024 x i16], ptr %52, i64 0, i64 %53
  store i16 %50, ptr %54, align 2, !tbaa !16
  call void @llvm.lifetime.end.p0(i64 4, ptr %9) #5
  call void @llvm.lifetime.end.p0(i64 4, ptr %8) #5
  call void @llvm.lifetime.end.p0(i64 4, ptr %7) #5
  call void @llvm.lifetime.end.p0(i64 8, ptr %6) #5
  call void @llvm.lifetime.end.p0(i64 4, ptr %5) #5
  br label %55

55:                                               ; preds = %33
  %56 = load i64, ptr %4, align 8, !tbaa !21
  %57 = add i64 %56, 1
  store i64 %57, ptr %4, align 8, !tbaa !21
  br label %12, !llvm.loop !25

58:                                               ; preds = %12
  call void @llvm.lifetime.end.p0(i64 8, ptr %4) #5
  call void @llvm.lifetime.end.p0(i64 4096, ptr %3) #5
  ret void
}