; Function Attrs: nounwind uwtable
define hidden void @newhope_poly_getnoise(ptr noundef writeonly captures(none) %0) local_unnamed_addr #2 {
  %2 = alloca [1024 x i32], align 16
  call void @llvm.lifetime.start.p0(i64 4096, ptr nonnull %2) #6
  %3 = call i32 @RAND_bytes(ptr noundef nonnull %2, i64 noundef 4096) #6
  br label %4

4:                                                ; preds = %1, %13
  %.021 = phi i64 [ 0, %1 ], [ %25, %13 ]
  %5 = getelementptr inbounds nuw [1024 x i32], ptr %2, i64 0, i64 %.021
  %6 = load i32, ptr %5, align 4, !tbaa !14
  br label %7

7:                                                ; preds = %4, %7
  %.01520 = phi i64 [ 0, %4 ], [ %12, %7 ]
  %.01619 = phi i32 [ 0, %4 ], [ %11, %7 ]
  %8 = trunc nuw nsw i64 %.01520 to i32
  %9 = lshr i32 %6, %8
  %10 = and i32 %9, 16843009
  %11 = add i32 %10, %.01619
  %12 = add nuw nsw i64 %.01520, 1
  %exitcond.not = icmp eq i64 %12, 8
  br i1 %exitcond.not, label %13, label %7, !llvm.loop !17

13:                                               ; preds = %7
  %14 = lshr i32 %11, 8
  %15 = and i32 %14, 255
  %16 = and i32 %11, 255
  %17 = lshr i32 %11, 24
  %18 = lshr i32 %11, 16
  %19 = and i32 %18, 255
  %.neg18 = add nuw nsw i32 %16, 12289
  %20 = add nuw nsw i32 %.neg18, %15
  %21 = add nuw nsw i32 %17, %19
  %22 = sub nuw nsw i32 %20, %21
  %23 = trunc nuw nsw i32 %22 to i16
  %24 = getelementptr inbounds nuw [1024 x i16], ptr %0, i64 0, i64 %.021
  store i16 %23, ptr %24, align 2, !tbaa !9
  %25 = add nuw nsw i64 %.021, 1
  %exitcond22.not = icmp eq i64 %25, 1024
  br i1 %exitcond22.not, label %26, label %4, !llvm.loop !18

26:                                               ; preds = %13
  call void @llvm.lifetime.end.p0(i64 4096, ptr nonnull %2) #6
  ret void
}